(dp1
S'output'
p2
S'The "end" tag is unmatched, please check if you have a starting "block" tag'
p3
sS'layer'
p4
S"'layout.html'"
p5
sS'code'
p6
S'<!DOCTYPE html>\n<!--[if (gt IE 9)|!(IE)]><!--> <html class="no-js" lang="{{=T.accepted_language or \'en\'}}"> <!--<![endif]-->\n  <head>\n    <meta charset="utf-8">\n    <!-- www.phpied.com/conditional-comments-block-downloads/ -->\n    <!-- Always force latest IE rendering engine\n         (even in intranet) & Chrome Frame\n         Remove this if you use the .htaccess -->\n    <meta http-equiv="X-UA-Compatible" content="IE=edge{{=not request.is_local and \',chrome=1\' or \'\'}}">\n    <!--  Mobile Viewport Fix\n          j.mp/mobileviewport & davidbcalhoun.com/2010/viewport-metatag\n          device-width: Occupy full width of the screen in its current orientation\n          initial-scale = 1.0 retains dimensions instead of zooming out if page height > device height\n          user-scalable = yes allows the user to zoom in -->\n    <meta name="viewport" content="width=device-width, initial-scale=1.0">\n    <title>{{=response.title or request.application}}</title>\n    <!-- http://dev.w3.org/html5/markup/meta.name.html -->\n    <meta name="application-name" content="{{=request.application}}">\n    <!-- Speaking of Google, don\'t forget to set your site up:\n         http://google.com/webmasters -->\n    <meta name="google-site-verification" content="">\n    <!-- include stylesheets -->\n    <link rel="stylesheet" href="{{=URL(\'static\',\'css/bootstrap.min.css\')}}"/>\n    <link rel="stylesheet" href="{{=URL(\'static\',\'css/bootstrap-theme.min.css\')}}"/>\n    <link rel="stylesheet" href="{{=URL(\'static\',\'css/web2py-bootstrap3.css\')}}"/>\n    <link rel="shortcut icon" href="{{=URL(\'static\',\'images/favicon.ico\')}}" type="image/x-icon">\n    <link rel="apple-touch-icon" href="{{=URL(\'static\',\'images/favicon.png\')}}">\n    <!-- All JavaScript at the bottom, except for Modernizr which enables\n         HTML5 elements & feature detects -->\n    <script src="{{=URL(\'static\',\'js/modernizr-2.8.3.min.js\')}}"></script>\n    <!--[if lt IE 9]>\n        <script src="{{=URL(\'static\',\'js/respond-1.4.2.min.js\')}}"></script>\n        <![endif]-->\n    <!-- Favicons -->\n    {{include \'web2py_ajax.html\'}} <!-- this includes jquery.js, calendar.js/.css and web2py.js -->\n    {{block head}}{{end}}\n\n  </head>\n  <body>\n    <!--[if lt IE 8]><p class="browserupgrade">You are using an <strong>outdated</strong> browser. Please <a href="http://browsehappy.com/">upgrade your browser</a> to improve your experience.</p><![endif]-->\n    <div class="flash alert alert-dismissable">{{=response.flash or \'\'}}</div>\n \n\n        {{include}}\n\n\n    {{end}}\n    <!-- The javascript =============================== -->\n    <script src="{{=URL(\'static\',\'js/bootstrap.min.js\')}}"></script>\n    <script src="{{=URL(\'static\',\'js/web2py-bootstrap3.js\')}}"></script>\n    {{block page_js}}{{end page_js}}\n    {{if response.google_analytics_id:}}\n    <!-- Analytics ==================================== -->\n    <script src="{{=URL(\'static\',\'js/analytics.min.js\')}}"></script>\n    <script type="text/javascript">\n      analytics.initialize({\n      \'Google Analytics\':{trackingId:\'{{=response.google_analytics_id}}\'}\n      });\n    </script>\n    {{pass}}\n    <!-- Share ============================y============ -->\n    <script src="{{=URL(\'static\',\'js/share.js\',vars=dict(static=URL(\'static\',\'images\')))}}"></script>\n  </body>\n</html>\n'
p7
sS'snapshot'
p8
(dp9
sS'traceback'
p10
S'None\n'
p11
s.